(dp0
S'Congenital disorders\n'
p1
I3
sS'Rare diseases\n'
p2
I0
sS'Infectious diseases\n'
p3
I1
sS'Cancer\n'
p4
I2
sS'Machine learning algorithms\n'
p5
I5
sS'Organs (anatomy)\n'
p6
I4
sS'Medical devices\n'
p7
I6
s.